target datalayout = "e-m:e-p270:32:32-p271:32:32-p272:64:64-i64:64-i128:128-f80:128-n8:16:32:64-S128"
target triple = "x86_64-pc-linux-gnu"

%"class.OpenSubdiv::v3_6_0::Vtr::internal::FVarRefinement" = type { ptr, ptr, ptr, ptr, ptr, %"class.std::vector" }
%"class.std::vector" = type { %"struct.std::_Vector_base" }
%"struct.std::_Vector_base" = type { %"struct.std::_Vector_base<unsigned short, std::allocator<unsigned short>>::_Vector_impl" }
%"struct.std::_Vector_base<unsigned short, std::allocator<unsigned short>>::_Vector_impl" = type { %"struct.std::_Vector_base<unsigned short, std::allocator<unsigned short>>::_Vector_impl_data" }
%"struct.std::_Vector_base<unsigned short, std::allocator<unsigned short>>::_Vector_impl_data" = type { ptr, ptr, ptr }
%"class.OpenSubdiv::v3_6_0::Vtr::internal::Refinement" = type { ptr, ptr, ptr, %"class.OpenSubdiv::v3_6_0::Sdc::Options", i32, i32, i8, i8, i32, i32, i32, i32, i32, i32, i32, i32, i32, i32, i32, i32, %"class.OpenSubdiv::v3_6_0::Vtr::Array", %"class.OpenSubdiv::v3_6_0::Vtr::Array", %"class.std::vector.0", %"class.std::vector.0", %"class.std::vector.0", %"class.std::vector.0", %"class.std::vector.0", %"class.std::vector.0", %"class.std::vector.0", %"class.std::vector.0", %"class.std::vector.0", %"class.std::vector.5", %"class.std::vector.5", %"class.std::vector.5", %"class.std::vector.10", %"class.std::vector.10", %"class.std::vector.10", %"class.std::vector.15" }
%"class.OpenSubdiv::v3_6_0::Sdc::Options" = type { i8, i8, i8, i8 }
%"class.OpenSubdiv::v3_6_0::Vtr::Array" = type { %"class.OpenSubdiv::v3_6_0::Vtr::ConstArray.base", [4 x i8] }
%"class.OpenSubdiv::v3_6_0::Vtr::ConstArray.base" = type <{ ptr, i32 }>
%"class.std::vector.0" = type { %"struct.std::_Vector_base.1" }
%"struct.std::_Vector_base.1" = type { %"struct.std::_Vector_base<int, std::allocator<int>>::_Vector_impl" }
%"struct.std::_Vector_base<int, std::allocator<int>>::_Vector_impl" = type { %"struct.std::_Vector_base<int, std::allocator<int>>::_Vector_impl_data" }
%"struct.std::_Vector_base<int, std::allocator<int>>::_Vector_impl_data" = type { ptr, ptr, ptr }
%"class.std::vector.5" = type { %"struct.std::_Vector_base.6" }
%"struct.std::_Vector_base.6" = type { %"struct.std::_Vector_base<OpenSubdiv::v3_6_0::Vtr::internal::Refinement::ChildTag, std::allocator<OpenSubdiv::v3_6_0::Vtr::internal::Refinement::ChildTag>>::_Vector_impl" }
%"struct.std::_Vector_base<OpenSubdiv::v3_6_0::Vtr::internal::Refinement::ChildTag, std::allocator<OpenSubdiv::v3_6_0::Vtr::internal::Refinement::ChildTag>>::_Vector_impl" = type { %"struct.std::_Vector_base<OpenSubdiv::v3_6_0::Vtr::internal::Refinement::ChildTag, std::allocator<OpenSubdiv::v3_6_0::Vtr::internal::Refinement::ChildTag>>::_Vector_impl_data" }
%"struct.std::_Vector_base<OpenSubdiv::v3_6_0::Vtr::internal::Refinement::ChildTag, std::allocator<OpenSubdiv::v3_6_0::Vtr::internal::Refinement::ChildTag>>::_Vector_impl_data" = type { ptr, ptr, ptr }
%"class.std::vector.10" = type { %"struct.std::_Vector_base.11" }
%"struct.std::_Vector_base.11" = type { %"struct.std::_Vector_base<OpenSubdiv::v3_6_0::Vtr::internal::Refinement::SparseTag, std::allocator<OpenSubdiv::v3_6_0::Vtr::internal::Refinement::SparseTag>>::_Vector_impl" }
%"struct.std::_Vector_base<OpenSubdiv::v3_6_0::Vtr::internal::Refinement::SparseTag, std::allocator<OpenSubdiv::v3_6_0::Vtr::internal::Refinement::SparseTag>>::_Vector_impl" = type { %"struct.std::_Vector_base<OpenSubdiv::v3_6_0::Vtr::internal::Refinement::SparseTag, std::allocator<OpenSubdiv::v3_6_0::Vtr::internal::Refinement::SparseTag>>::_Vector_impl_data" }
%"struct.std::_Vector_base<OpenSubdiv::v3_6_0::Vtr::internal::Refinement::SparseTag, std::allocator<OpenSubdiv::v3_6_0::Vtr::internal::Refinement::SparseTag>>::_Vector_impl_data" = type { ptr, ptr, ptr }
%"class.std::vector.15" = type { %"struct.std::_Vector_base.16" }
%"struct.std::_Vector_base.16" = type { %"struct.std::_Vector_base<OpenSubdiv::v3_6_0::Vtr::internal::FVarRefinement *, std::allocator<OpenSubdiv::v3_6_0::Vtr::internal::FVarRefinement *>>::_Vector_impl" }
%"struct.std::_Vector_base<OpenSubdiv::v3_6_0::Vtr::internal::FVarRefinement *, std::allocator<OpenSubdiv::v3_6_0::Vtr::internal::FVarRefinement *>>::_Vector_impl" = type { %"struct.std::_Vector_base<OpenSubdiv::v3_6_0::Vtr::internal::FVarRefinement *, std::allocator<OpenSubdiv::v3_6_0::Vtr::internal::FVarRefinement *>>::_Vector_impl_data" }
%"struct.std::_Vector_base<OpenSubdiv::v3_6_0::Vtr::internal::FVarRefinement *, std::allocator<OpenSubdiv::v3_6_0::Vtr::internal::FVarRefinement *>>::_Vector_impl_data" = type { ptr, ptr, ptr }
%"class.OpenSubdiv::v3_6_0::Vtr::internal::FVarLevel" = type { ptr, %"class.OpenSubdiv::v3_6_0::Sdc::Options", i8, i8, i8, i32, %"class.std::vector.0", %"class.std::vector.45", %"class.std::vector", %"class.std::vector.0", %"class.std::vector", %"class.std::vector.0", %"class.std::vector.50", %"class.std::vector.55" }
%"class.std::vector.45" = type { %"struct.std::_Vector_base.46" }
%"struct.std::_Vector_base.46" = type { %"struct.std::_Vector_base<OpenSubdiv::v3_6_0::Vtr::internal::FVarLevel::ETag, std::allocator<OpenSubdiv::v3_6_0::Vtr::internal::FVarLevel::ETag>>::_Vector_impl" }
%"struct.std::_Vector_base<OpenSubdiv::v3_6_0::Vtr::internal::FVarLevel::ETag, std::allocator<OpenSubdiv::v3_6_0::Vtr::internal::FVarLevel::ETag>>::_Vector_impl" = type { %"struct.std::_Vector_base<OpenSubdiv::v3_6_0::Vtr::internal::FVarLevel::ETag, std::allocator<OpenSubdiv::v3_6_0::Vtr::internal::FVarLevel::ETag>>::_Vector_impl_data" }
%"struct.std::_Vector_base<OpenSubdiv::v3_6_0::Vtr::internal::FVarLevel::ETag, std::allocator<OpenSubdiv::v3_6_0::Vtr::internal::FVarLevel::ETag>>::_Vector_impl_data" = type { ptr, ptr, ptr }
%"class.std::vector.50" = type { %"struct.std::_Vector_base.51" }
%"struct.std::_Vector_base.51" = type { %"struct.std::_Vector_base<OpenSubdiv::v3_6_0::Vtr::internal::FVarLevel::ValueTag, std::allocator<OpenSubdiv::v3_6_0::Vtr::internal::FVarLevel::ValueTag>>::_Vector_impl" }
%"struct.std::_Vector_base<OpenSubdiv::v3_6_0::Vtr::internal::FVarLevel::ValueTag, std::allocator<OpenSubdiv::v3_6_0::Vtr::internal::FVarLevel::ValueTag>>::_Vector_impl" = type { %"struct.std::_Vector_base<OpenSubdiv::v3_6_0::Vtr::internal::FVarLevel::ValueTag, std::allocator<OpenSubdiv::v3_6_0::Vtr::internal::FVarLevel::ValueTag>>::_Vector_impl_data" }
%"struct.std::_Vector_base<OpenSubdiv::v3_6_0::Vtr::internal::FVarLevel::ValueTag, std::allocator<OpenSubdiv::v3_6_0::Vtr::internal::FVarLevel::ValueTag>>::_Vector_impl_data" = type { ptr, ptr, ptr }
%"class.std::vector.55" = type { %"struct.std::_Vector_base.56" }
%"struct.std::_Vector_base.56" = type { %"struct.std::_Vector_base<OpenSubdiv::v3_6_0::Vtr::internal::FVarLevel::CreaseEndPair, std::allocator<OpenSubdiv::v3_6_0::Vtr::internal::FVarLevel::CreaseEndPair>>::_Vector_impl" }
%"struct.std::_Vector_base<OpenSubdiv::v3_6_0::Vtr::internal::FVarLevel::CreaseEndPair, std::allocator<OpenSubdiv::v3_6_0::Vtr::internal::FVarLevel::CreaseEndPair>>::_Vector_impl" = type { %"struct.std::_Vector_base<OpenSubdiv::v3_6_0::Vtr::internal::FVarLevel::CreaseEndPair, std::allocator<OpenSubdiv::v3_6_0::Vtr::internal::FVarLevel::CreaseEndPair>>::_Vector_impl_data" }
%"struct.std::_Vector_base<OpenSubdiv::v3_6_0::Vtr::internal::FVarLevel::CreaseEndPair, std::allocator<OpenSubdiv::v3_6_0::Vtr::internal::FVarLevel::CreaseEndPair>>::_Vector_impl_data" = type { ptr, ptr, ptr }
%"struct.OpenSubdiv::v3_6_0::Vtr::internal::FVarLevel::ETag" = type { i8 }

; Function Attrs: mustprogress nounwind uwtable
define linkonce_odr noundef nonnull align 1 dereferenceable(1) ptr @_ZNKSt6vectorIN10OpenSubdiv6v3_6_03Vtr8internal9FVarLevel4ETagESaIS5_EEixEm(ptr noundef nonnull align 8 dereferenceable(24) %0, i64 noundef %1) #1 comdat align 2 {
  %3 = alloca ptr, align 8
  %4 = alloca i64, align 8
  store ptr %0, ptr %3, align 8
  store i64 %1, ptr %4, align 8
  %5 = load ptr, ptr %3, align 8
  %6 = getelementptr inbounds nuw %"struct.std::_Vector_base.46", ptr %5, i32 0, i32 0
  %7 = getelementptr inbounds nuw %"struct.std::_Vector_base<OpenSubdiv::v3_6_0::Vtr::internal::FVarLevel::ETag, std::allocator<OpenSubdiv::v3_6_0::Vtr::internal::FVarLevel::ETag>>::_Vector_impl_data", ptr %6, i32 0, i32 0
  %8 = load ptr, ptr %7, align 8
  %9 = load i64, ptr %4, align 8
  %10 = getelementptr inbounds %"struct.OpenSubdiv::v3_6_0::Vtr::internal::FVarLevel::ETag", ptr %8, i64 %9
  ret ptr %10
}

; Function Attrs: mustprogress nounwind uwtable
define linkonce_odr i8 @_ZNK10OpenSubdiv6v3_6_03Vtr8internal9FVarLevel10getEdgeTagEi(ptr noundef nonnull align 8 dereferenceable(216) %0, i32 noundef %1) #1 comdat align 2 {
  %3 = alloca %"struct.OpenSubdiv::v3_6_0::Vtr::internal::FVarLevel::ETag", align 1
  %4 = alloca ptr, align 8
  %5 = alloca i32, align 4
  store ptr %0, ptr %4, align 8
  store i32 %1, ptr %5, align 4
  %6 = load ptr, ptr %4, align 8
  %7 = getelementptr inbounds nuw %"class.OpenSubdiv::v3_6_0::Vtr::internal::FVarLevel", ptr %6, i32 0, i32 7
  %8 = load i32, ptr %5, align 4
  %9 = sext i32 %8 to i64
  %10 = call noundef nonnull align 1 dereferenceable(1) ptr @_ZNKSt6vectorIN10OpenSubdiv6v3_6_03Vtr8internal9FVarLevel4ETagESaIS5_EEixEm(ptr noundef nonnull align 8 dereferenceable(24) %7, i64 noundef %9) #10
  call void @llvm.memcpy.p0.p0.i64(ptr align 1 %3, ptr align 1 %10, i64 1, i1 false)
  %11 = getelementptr inbounds nuw %"struct.OpenSubdiv::v3_6_0::Vtr::internal::FVarLevel::ETag", ptr %3, i32 0, i32 0
  %12 = load i8, ptr %11, align 1
  ret i8 %12
}

; Function Attrs: mustprogress nounwind uwtable
define linkonce_odr noundef nonnull align 4 dereferenceable(4) ptr @_ZNKSt6vectorIiSaIiEEixEm(ptr noundef nonnull align 8 dereferenceable(24) %0, i64 noundef %1) #1 comdat align 2 {
  %3 = alloca ptr, align 8
  %4 = alloca i64, align 8
  store ptr %0, ptr %3, align 8
  store i64 %1, ptr %4, align 8
  %5 = load ptr, ptr %3, align 8
  %6 = getelementptr inbounds nuw %"struct.std::_Vector_base.1", ptr %5, i32 0, i32 0
  %7 = getelementptr inbounds nuw %"struct.std::_Vector_base<int, std::allocator<int>>::_Vector_impl_data", ptr %6, i32 0, i32 0
  %8 = load ptr, ptr %7, align 8
  %9 = load i64, ptr %4, align 8
  %10 = getelementptr inbounds i32, ptr %8, i64 %9
  ret ptr %10
}

; Function Attrs: mustprogress nounwind uwtable
define linkonce_odr noundef nonnull align 2 dereferenceable(2) ptr @_ZNSt6vectorItSaItEEixEm(ptr noundef nonnull align 8 dereferenceable(24) %0, i64 noundef %1) #1 comdat align 2 {
  %3 = alloca ptr, align 8
  %4 = alloca i64, align 8
  store ptr %0, ptr %3, align 8
  store i64 %1, ptr %4, align 8
  %5 = load ptr, ptr %3, align 8
  %6 = getelementptr inbounds nuw %"struct.std::_Vector_base", ptr %5, i32 0, i32 0
  %7 = getelementptr inbounds nuw %"struct.std::_Vector_base<unsigned short, std::allocator<unsigned short>>::_Vector_impl_data", ptr %6, i32 0, i32 0
  %8 = load ptr, ptr %7, align 8
  %9 = load i64, ptr %4, align 8
  %10 = getelementptr inbounds i16, ptr %8, i64 %9
  ret ptr %10
}

; Function Attrs: mustprogress uwtable
define linkonce_odr noundef zeroext i1 @_ZNK10OpenSubdiv6v3_6_03Vtr8internal9FVarLevel19edgeTopologyMatchesEi(ptr noundef nonnull align 8 dereferenceable(216) %0, i32 noundef %1) #0 comdat align 2 {
  %3 = alloca ptr, align 8
  %4 = alloca i32, align 4
  %5 = alloca %"struct.OpenSubdiv::v3_6_0::Vtr::internal::FVarLevel::ETag", align 1
  store ptr %0, ptr %3, align 8
  store i32 %1, ptr %4, align 4
  %6 = load ptr, ptr %3, align 8
  %7 = load i32, ptr %4, align 4
  %8 = call i8 @_ZNK10OpenSubdiv6v3_6_03Vtr8internal9FVarLevel10getEdgeTagEi(ptr noundef nonnull align 8 dereferenceable(216) %6, i32 noundef %7)
  %9 = getelementptr inbounds nuw %"struct.OpenSubdiv::v3_6_0::Vtr::internal::FVarLevel::ETag", ptr %5, i32 0, i32 0
  store i8 %8, ptr %9, align 1
  %10 = load i8, ptr %5, align 1
  %11 = and i8 %10, 1
  %12 = icmp ne i8 %11, 0
  %13 = xor i1 %12, true
  ret i1 %13
}

; Function Attrs: mustprogress nounwind uwtable
define linkonce_odr noundef nonnull align 4 dereferenceable(4) ptr @_ZNSt6vectorIiSaIiEEixEm(ptr noundef nonnull align 8 dereferenceable(24) %0, i64 noundef %1) #1 comdat align 2 {
  %3 = alloca ptr, align 8
  %4 = alloca i64, align 8
  store ptr %0, ptr %3, align 8
  store i64 %1, ptr %4, align 8
  %5 = load ptr, ptr %3, align 8
  %6 = getelementptr inbounds nuw %"struct.std::_Vector_base.1", ptr %5, i32 0, i32 0
  %7 = getelementptr inbounds nuw %"struct.std::_Vector_base<int, std::allocator<int>>::_Vector_impl_data", ptr %6, i32 0, i32 0
  %8 = load ptr, ptr %7, align 8
  %9 = load i64, ptr %4, align 8
  %10 = getelementptr inbounds i32, ptr %8, i64 %9
  ret ptr %10
}

; Function Attrs: mustprogress nounwind uwtable
define linkonce_odr noundef i32 @_ZNK10OpenSubdiv6v3_6_03Vtr8internal10Refinement25getChildVertexParentIndexEi(ptr noundef nonnull align 8 dereferenceable(504) %0, i32 noundef %1) #1 comdat align 2 {
  %3 = alloca ptr, align 8
  %4 = alloca i32, align 4
  store ptr %0, ptr %3, align 8
  store i32 %1, ptr %4, align 4
  %5 = load ptr, ptr %3, align 8
  %6 = getelementptr inbounds nuw %"class.OpenSubdiv::v3_6_0::Vtr::internal::Refinement", ptr %5, i32 0, i32 30
  %7 = load i32, ptr %4, align 4
  %8 = sext i32 %7 to i64
  %9 = call noundef nonnull align 4 dereferenceable(4) ptr @_ZNKSt6vectorIiSaIiEEixEm(ptr noundef nonnull align 8 dereferenceable(24) %6, i64 noundef %8) #10
  %10 = load i32, ptr %9, align 4
  ret i32 %10
}

; Function Attrs: mustprogress nounwind uwtable
define linkonce_odr noundef i32 @_ZNK10OpenSubdiv6v3_6_03Vtr8internal10Refinement28getNumChildVerticesFromEdgesEv(ptr noundef nonnull align 8 dereferenceable(504) %0) #1 comdat align 2 {
  %2 = alloca ptr, align 8
  store ptr %0, ptr %2, align 8
  %3 = load ptr, ptr %2, align 8
  %4 = getelementptr inbounds nuw %"class.OpenSubdiv::v3_6_0::Vtr::internal::Refinement", ptr %3, i32 0, i32 12
  %5 = load i32, ptr %4, align 8
  ret i32 %5
}

; Function Attrs: mustprogress nounwind uwtable
define linkonce_odr noundef i32 @_ZNK10OpenSubdiv6v3_6_03Vtr8internal10Refinement28getFirstChildVertexFromEdgesEv(ptr noundef nonnull align 8 dereferenceable(504) %0) #1 comdat align 2 {
  %2 = alloca ptr, align 8
  store ptr %0, ptr %2, align 8
  %3 = load ptr, ptr %2, align 8
  %4 = getelementptr inbounds nuw %"class.OpenSubdiv::v3_6_0::Vtr::internal::Refinement", ptr %3, i32 0, i32 18
  %5 = load i32, ptr %4, align 8
  ret i32 %5
}

; Function Attrs: mustprogress uwtable
define void @_ZN10OpenSubdiv6v3_6_03Vtr8internal14FVarRefinement35populateChildValuesFromEdgeVerticesEv(ptr noundef nonnull align 8 dereferenceable(64) %0) #0 align 2 {
  %2 = alloca ptr, align 8
  %3 = alloca i32, align 4
  %4 = alloca i32, align 4
  %5 = alloca i32, align 4
  %6 = alloca i32, align 4
  store ptr %0, ptr %2, align 8
  %7 = load ptr, ptr %2, align 8
  %8 = getelementptr inbounds nuw %"class.OpenSubdiv::v3_6_0::Vtr::internal::FVarRefinement", ptr %7, i32 0, i32 0
  %9 = load ptr, ptr %8, align 8
  %10 = call noundef i32 @_ZNK10OpenSubdiv6v3_6_03Vtr8internal10Refinement28getFirstChildVertexFromEdgesEv(ptr noundef nonnull align 8 dereferenceable(504) %9)
  store i32 %10, ptr %3, align 4
  %11 = load i32, ptr %3, align 4
  %12 = getelementptr inbounds nuw %"class.OpenSubdiv::v3_6_0::Vtr::internal::FVarRefinement", ptr %7, i32 0, i32 0
  %13 = load ptr, ptr %12, align 8
  %14 = call noundef i32 @_ZNK10OpenSubdiv6v3_6_03Vtr8internal10Refinement28getNumChildVerticesFromEdgesEv(ptr noundef nonnull align 8 dereferenceable(504) %13)
  %15 = add nsw i32 %11, %14
  store i32 %15, ptr %4, align 4
  br label %16

16:                                               ; preds = %70, %1
  %17 = load i32, ptr %3, align 4
  %18 = load i32, ptr %4, align 4
  %19 = icmp slt i32 %17, %18
  br i1 %19, label %20, label %73

20:                                               ; preds = %16
  %21 = getelementptr inbounds nuw %"class.OpenSubdiv::v3_6_0::Vtr::internal::FVarRefinement", ptr %7, i32 0, i32 0
  %22 = load ptr, ptr %21, align 8
  %23 = load i32, ptr %3, align 4
  %24 = call noundef i32 @_ZNK10OpenSubdiv6v3_6_03Vtr8internal10Refinement25getChildVertexParentIndexEi(ptr noundef nonnull align 8 dereferenceable(504) %22, i32 noundef %23)
  store i32 %24, ptr %5, align 4
  %25 = getelementptr inbounds nuw %"class.OpenSubdiv::v3_6_0::Vtr::internal::FVarRefinement", ptr %7, i32 0, i32 4
  %26 = load ptr, ptr %25, align 8
  %27 = getelementptr inbounds nuw %"class.OpenSubdiv::v3_6_0::Vtr::internal::FVarLevel", ptr %26, i32 0, i32 5
  %28 = load i32, ptr %27, align 8
  %29 = getelementptr inbounds nuw %"class.OpenSubdiv::v3_6_0::Vtr::internal::FVarRefinement", ptr %7, i32 0, i32 4
  %30 = load ptr, ptr %29, align 8
  %31 = getelementptr inbounds nuw %"class.OpenSubdiv::v3_6_0::Vtr::internal::FVarLevel", ptr %30, i32 0, i32 9
  %32 = load i32, ptr %3, align 4
  %33 = sext i32 %32 to i64
  %34 = call noundef nonnull align 4 dereferenceable(4) ptr @_ZNSt6vectorIiSaIiEEixEm(ptr noundef nonnull align 8 dereferenceable(24) %31, i64 noundef %33) #10
  store i32 %28, ptr %34, align 4
  %35 = getelementptr inbounds nuw %"class.OpenSubdiv::v3_6_0::Vtr::internal::FVarRefinement", ptr %7, i32 0, i32 2
  %36 = load ptr, ptr %35, align 8
  %37 = load i32, ptr %5, align 4
  %38 = call noundef zeroext i1 @_ZNK10OpenSubdiv6v3_6_03Vtr8internal9FVarLevel19edgeTopologyMatchesEi(ptr noundef nonnull align 8 dereferenceable(216) %36, i32 noundef %37)
  br i1 %38, label %39, label %51

39:                                               ; preds = %20
  %40 = getelementptr inbounds nuw %"class.OpenSubdiv::v3_6_0::Vtr::internal::FVarRefinement", ptr %7, i32 0, i32 4
  %41 = load ptr, ptr %40, align 8
  %42 = getelementptr inbounds nuw %"class.OpenSubdiv::v3_6_0::Vtr::internal::FVarLevel", ptr %41, i32 0, i32 8
  %43 = load i32, ptr %3, align 4
  %44 = sext i32 %43 to i64
  %45 = call noundef nonnull align 2 dereferenceable(2) ptr @_ZNSt6vectorItSaItEEixEm(ptr noundef nonnull align 8 dereferenceable(24) %42, i64 noundef %44) #10
  store i16 1, ptr %45, align 2
  %46 = getelementptr inbounds nuw %"class.OpenSubdiv::v3_6_0::Vtr::internal::FVarRefinement", ptr %7, i32 0, i32 4
  %47 = load ptr, ptr %46, align 8
  %48 = getelementptr inbounds nuw %"class.OpenSubdiv::v3_6_0::Vtr::internal::FVarLevel", ptr %47, i32 0, i32 5
  %49 = load i32, ptr %48, align 8
  %50 = add nsw i32 %49, 1
  store i32 %50, ptr %48, align 8
  br label %69

51:                                               ; preds = %20
  %52 = load i32, ptr %3, align 4
  %53 = load i32, ptr %5, align 4
  %54 = call noundef i32 @_ZN10OpenSubdiv6v3_6_03Vtr8internal14FVarRefinement32populateChildValuesForEdgeVertexEii(ptr noundef nonnull align 8 dereferenceable(64) %7, i32 noundef %52, i32 noundef %53)
  store i32 %54, ptr %6, align 4
  %55 = load i32, ptr %6, align 4
  %56 = trunc i32 %55 to i16
  %57 = getelementptr inbounds nuw %"class.OpenSubdiv::v3_6_0::Vtr::internal::FVarRefinement", ptr %7, i32 0, i32 4
  %58 = load ptr, ptr %57, align 8
  %59 = getelementptr inbounds nuw %"class.OpenSubdiv::v3_6_0::Vtr::internal::FVarLevel", ptr %58, i32 0, i32 8
  %60 = load i32, ptr %3, align 4
  %61 = sext i32 %60 to i64
  %62 = call noundef nonnull align 2 dereferenceable(2) ptr @_ZNSt6vectorItSaItEEixEm(ptr noundef nonnull align 8 dereferenceable(24) %59, i64 noundef %61) #10
  store i16 %56, ptr %62, align 2
  %63 = load i32, ptr %6, align 4
  %64 = getelementptr inbounds nuw %"class.OpenSubdiv::v3_6_0::Vtr::internal::FVarRefinement", ptr %7, i32 0, i32 4
  %65 = load ptr, ptr %64, align 8
  %66 = getelementptr inbounds nuw %"class.OpenSubdiv::v3_6_0::Vtr::internal::FVarLevel", ptr %65, i32 0, i32 5
  %67 = load i32, ptr %66, align 8
  %68 = add nsw i32 %67, %63
  store i32 %68, ptr %66, align 8
  br label %69

69:                                               ; preds = %51, %39
  br label %70

70:                                               ; preds = %69
  %71 = load i32, ptr %3, align 4
  %72 = add nsw i32 %71, 1
  store i32 %72, ptr %3, align 4
  br label %16, !llvm.loop !31

73:                                               ; preds = %16
  ret void
}