; Function Attrs: mustprogress uwtable
define void @_ZN10OpenSubdiv6v3_6_03Vtr8internal14FVarRefinement35populateChildValuesFromEdgeVerticesEv(ptr noundef nonnull align 8 dereferenceable(64) %0) local_unnamed_addr #3 align 2 {
  %2 = load ptr, ptr %0, align 8
  %3 = getelementptr inbounds nuw i8, ptr %2, i64 56
  %4 = load i32, ptr %3, align 8
  %5 = icmp sgt i32 %4, 0
  br i1 %5, label %.lr.ph, label %._crit_edge

.lr.ph:                                           ; preds = %1
  %6 = getelementptr inbounds nuw i8, ptr %2, i64 80
  %7 = load i32, ptr %6, align 8
  %8 = add nsw i32 %4, %7
  %9 = getelementptr inbounds nuw i8, ptr %0, i64 32
  %10 = getelementptr inbounds nuw i8, ptr %0, i64 16
  %11 = sext i32 %7 to i64
  %12 = sext i32 %8 to i64
  br label %13

13:                                               ; preds = %.lr.ph, %35
  %indvars.iv = phi i64 [ %11, %.lr.ph ], [ %indvars.iv.next, %35 ]
  %14 = load ptr, ptr %0, align 8
  %15 = getelementptr inbounds nuw i8, ptr %14, i64 312
  %16 = load ptr, ptr %15, align 8
  %17 = getelementptr inbounds i32, ptr %16, i64 %indvars.iv
  %18 = load i32, ptr %17, align 4
  %19 = load ptr, ptr %9, align 8
  %20 = getelementptr inbounds nuw i8, ptr %19, i64 16
  %21 = load i32, ptr %20, align 8
  %22 = getelementptr inbounds nuw i8, ptr %19, i64 96
  %23 = load ptr, ptr %22, align 8
  %24 = getelementptr inbounds i32, ptr %23, i64 %indvars.iv
  store i32 %21, ptr %24, align 4
  %25 = load ptr, ptr %10, align 8
  %26 = getelementptr inbounds nuw i8, ptr %25, i64 48
  %27 = sext i32 %18 to i64
  %28 = load ptr, ptr %26, align 8
  %29 = getelementptr inbounds %"struct.OpenSubdiv::v3_6_0::Vtr::internal::FVarLevel::ETag", ptr %28, i64 %27
  %.sroa.0.0.copyload.i.i = load i8, ptr %29, align 1
  %30 = and i8 %.sroa.0.0.copyload.i.i, 1
  %.not.i = icmp eq i8 %30, 0
  br i1 %.not.i, label %35, label %31

31:                                               ; preds = %13
  %32 = trunc nsw i64 %indvars.iv to i32
  %33 = tail call noundef i32 @_ZN10OpenSubdiv6v3_6_03Vtr8internal14FVarRefinement32populateChildValuesForEdgeVertexEii(ptr noundef nonnull align 8 dereferenceable(64) %0, i32 noundef %32, i32 noundef %18)
  %34 = trunc i32 %33 to i16
  br label %35

35:                                               ; preds = %13, %31
  %.sink = phi i16 [ %34, %31 ], [ 1, %13 ]
  %.sink17 = phi i32 [ %33, %31 ], [ 1, %13 ]
  %36 = load ptr, ptr %9, align 8
  %37 = getelementptr inbounds nuw i8, ptr %36, i64 72
  %38 = load ptr, ptr %37, align 8
  %39 = getelementptr inbounds i16, ptr %38, i64 %indvars.iv
  store i16 %.sink, ptr %39, align 2
  %40 = load ptr, ptr %9, align 8
  %41 = getelementptr inbounds nuw i8, ptr %40, i64 16
  %42 = load i32, ptr %41, align 8
  %43 = add nsw i32 %42, %.sink17
  store i32 %43, ptr %41, align 8
  %indvars.iv.next = add nsw i64 %indvars.iv, 1
  %44 = icmp slt i64 %indvars.iv.next, %12
  br i1 %44, label %13, label %._crit_edge, !llvm.loop !17

._crit_edge:                                      ; preds = %35, %1
  ret void
}